target datalayout = "e-m:e-p270:32:32-p271:32:32-p272:64:64-i64:64-i128:128-f80:128-n8:16:32:64-S128"
target triple = "x86_64-pc-linux-gnu"

%struct.push_glob0_args = type { i32, ptr, i32, ptr, i64 }

; Function Attrs: nounwind sspstrong uwtable
define internal i32 @push_glob0_caller(ptr noundef %0, i64 noundef %1, ptr noundef %2) #0 {
  %4 = alloca ptr, align 8
  %5 = alloca i64, align 8
  %6 = alloca ptr, align 8
  %7 = alloca ptr, align 8
  store ptr %0, ptr %4, align 8, !tbaa !11
  store i64 %1, ptr %5, align 8, !tbaa !7
  store ptr %2, ptr %6, align 8, !tbaa !14
  call void @llvm.lifetime.start.p0(i64 8, ptr %7) #26
  %8 = load i64, ptr %5, align 8, !tbaa !7
  %9 = inttoptr i64 %8 to ptr
  store ptr %9, ptr %7, align 8, !tbaa !74
  %10 = load ptr, ptr %4, align 8, !tbaa !11
  %11 = load ptr, ptr %7, align 8, !tbaa !74
  %12 = getelementptr inbounds nuw %struct.push_glob0_args, ptr %11, i32 0, i32 0
  %13 = load i32, ptr %12, align 8, !tbaa !27
  %14 = load ptr, ptr %7, align 8, !tbaa !74
  %15 = getelementptr inbounds nuw %struct.push_glob0_args, ptr %14, i32 0, i32 1
  %16 = load ptr, ptr %15, align 8, !tbaa !29
  %17 = load ptr, ptr %7, align 8, !tbaa !74
  %18 = getelementptr inbounds nuw %struct.push_glob0_args, ptr %17, i32 0, i32 2
  %19 = load i32, ptr %18, align 8, !tbaa !30
  %20 = load ptr, ptr %7, align 8, !tbaa !74
  %21 = getelementptr inbounds nuw %struct.push_glob0_args, ptr %20, i32 0, i32 3
  %22 = load ptr, ptr %21, align 8, !tbaa !31
  %23 = load ptr, ptr %7, align 8, !tbaa !74
  %24 = getelementptr inbounds nuw %struct.push_glob0_args, ptr %23, i32 0, i32 4
  %25 = load i64, ptr %24, align 8, !tbaa !32
  %26 = load ptr, ptr %6, align 8, !tbaa !14
  %27 = call i32 @ruby_glob0(ptr noundef %10, i32 noundef %13, ptr noundef %16, i32 noundef %19, ptr noundef %22, i64 noundef %25, ptr noundef %26)
  call void @llvm.lifetime.end.p0(i64 8, ptr %7) #26
  ret i32 %27
}