; Function Attrs: nounwind sspstrong uwtable
define internal i32 @push_glob0_caller(ptr noundef %0, i64 noundef %1, ptr noundef %2) #0 {
  %4 = inttoptr i64 %1 to ptr
  %5 = load i32, ptr %4, align 8, !tbaa !20
  %6 = getelementptr inbounds nuw i8, ptr %4, i64 8
  %7 = load ptr, ptr %6, align 8, !tbaa !24
  %8 = getelementptr inbounds nuw i8, ptr %4, i64 16
  %9 = load i32, ptr %8, align 8, !tbaa !25
  %10 = getelementptr inbounds nuw i8, ptr %4, i64 24
  %11 = load ptr, ptr %10, align 8, !tbaa !26
  %12 = getelementptr inbounds nuw i8, ptr %4, i64 32
  %13 = load i64, ptr %12, align 8, !tbaa !27
  %14 = tail call fastcc i32 @ruby_glob0(ptr noundef %0, i32 noundef %5, ptr noundef %7, i32 noundef %9, ptr noundef %11, i64 noundef %13, ptr noundef %2)
  ret i32 %14
}